; Function Attrs: mustprogress nounwind uwtable
define hidden void @_ZN13CompileBroker25shutdown_compiler_runtimeEP16AbstractCompilerP14CompilerThread(ptr noundef %0, ptr nocapture noundef readonly %1) local_unnamed_addr #0 align 2 {
  %3 = getelementptr inbounds i8, ptr %1, i64 1840
  %4 = load ptr, ptr %3, align 8
  %.not.i = icmp eq ptr %4, null
  br i1 %.not.i, label %_ZN13CompileBroker29free_buffer_blob_if_allocatedEP14CompilerThread.exit, label %5

5:                                                ; preds = %2
  tail call void @_ZN8CodeBlob5purgeEv(ptr noundef nonnull align 8 dereferenceable(54) %4) #20
  %6 = load ptr, ptr @CodeCache_lock, align 8
  %.not.i.i.i = icmp eq ptr %6, null
  br i1 %.not.i.i.i, label %_ZN11MutexLockerC2EP5MutexNS0_18SafepointCheckFlagE.exit.thread.i, label %7

_ZN11MutexLockerC2EP5MutexNS0_18SafepointCheckFlagE.exit.thread.i: ; preds = %5
  tail call void @_ZN9CodeCache4freeEP8CodeBlob(ptr noundef nonnull %4) #20
  br label %_ZN13CompileBroker29free_buffer_blob_if_allocatedEP14CompilerThread.exit

7:                                                ; preds = %5
  tail call void @_ZN5Mutex28lock_without_safepoint_checkEv(ptr noundef nonnull align 8 dereferenceable(104) %6) #20
  tail call void @_ZN9CodeCache4freeEP8CodeBlob(ptr noundef nonnull %4) #20
  tail call void @_ZN5Mutex6unlockEv(ptr noundef nonnull align 8 dereferenceable(104) %6) #20
  br label %_ZN13CompileBroker29free_buffer_blob_if_allocatedEP14CompilerThread.exit

_ZN13CompileBroker29free_buffer_blob_if_allocatedEP14CompilerThread.exit: ; preds = %2, %_ZN11MutexLockerC2EP5MutexNS0_18SafepointCheckFlagE.exit.thread.i, %7
  %8 = tail call noundef zeroext i1 @_ZN16AbstractCompiler23should_perform_shutdownEv(ptr noundef nonnull align 8 dereferenceable(96) %0) #20
  br i1 %8, label %9, label %19

9:                                                ; preds = %_ZN13CompileBroker29free_buffer_blob_if_allocatedEP14CompilerThread.exit
  %10 = load ptr, ptr %0, align 8
  %11 = load ptr, ptr %10, align 8
  %12 = tail call noundef ptr %11(ptr noundef nonnull align 8 dereferenceable(96) %0) #20
  tail call void (ptr, ...) @_Z7warningPKcz(ptr noundef nonnull @.str.66, ptr noundef %12) #20
  tail call void @_ZN16AbstractCompiler9set_stateEi(ptr noundef nonnull align 8 dereferenceable(96) %0, i32 noundef 4) #20
  %13 = load ptr, ptr @_ZN13CompileBroker17_c1_compile_queueE, align 8
  %.not = icmp eq ptr %13, null
  br i1 %.not, label %15, label %14

14:                                               ; preds = %9
  tail call void @_ZN12CompileQueue8free_allEv(ptr noundef nonnull align 8 dereferenceable(48) %13)
  br label %15

15:                                               ; preds = %14, %9
  %16 = load ptr, ptr @_ZN13CompileBroker17_c2_compile_queueE, align 8
  %.not5 = icmp eq ptr %16, null
  br i1 %.not5, label %18, label %17

17:                                               ; preds = %15
  tail call void @_ZN12CompileQueue8free_allEv(ptr noundef nonnull align 8 dereferenceable(48) %16)
  br label %18

18:                                               ; preds = %17, %15
  store i8 0, ptr @UseCompiler, align 1
  store i8 1, ptr @UseInterpreter, align 1
  br label %19

19:                                               ; preds = %18, %_ZN13CompileBroker29free_buffer_blob_if_allocatedEP14CompilerThread.exit
  ret void
}